; ModuleID = 'bench/ffmpeg/original/vf_framestep.ll'
source_filename = "bench/ffmpeg/original/vf_framestep.ll"
target datalayout = "e-m:e-p270:32:32-p271:32:32-p272:64:64-i64:64-i128:128-f80:128-n8:16:32:64-S128"
target triple = "x86_64-pc-linux-gnu"

%struct.AVFilterPad = type { ptr, i32, i32, %union.anon, ptr, ptr, ptr }
%union.anon = type { ptr }
%union.anon.0 = type { ptr }
%union.anon.2 = type { i64 }

@.str = private unnamed_addr constant [10 x i8] c"framestep\00", align 1
@.str.1 = private unnamed_addr constant [33 x i8] c"Select one frame every N frames.\00", align 1
@framestep_inputs = internal constant [1 x %struct.AVFilterPad] [%struct.AVFilterPad { ptr @.str.2, i32 0, i32 0, %union.anon zeroinitializer, ptr @filter_frame, ptr null, ptr null }], align 16
@framestep_outputs = internal constant [1 x %struct.AVFilterPad] [%struct.AVFilterPad { ptr @.str.2, i32 0, i32 0, %union.anon zeroinitializer, ptr null, ptr null, ptr @config_output_props }], align 16
@ff_vf_framestep = local_unnamed_addr constant { { ptr, ptr, ptr, ptr, ptr, i32, [4 x i8] }, i8, i8, i8, [5 x i8], ptr, ptr, ptr, %union.anon.0, i32, i32, ptr, ptr } { { ptr, ptr, ptr, ptr, ptr, i32, [4 x i8] } { ptr @.str, ptr @.str.1, ptr @framestep_inputs, ptr @framestep_outputs, ptr @framestep_class, i32 65544, [4 x i8] zeroinitializer }, i8 1, i8 1, i8 0, [5 x i8] zeroinitializer, ptr null, ptr null, ptr null, %union.anon.0 zeroinitializer, i32 16, i32 0, ptr null, ptr null }, align 8
@.str.2 = private unnamed_addr constant [8 x i8] c"default\00", align 1
@.str.3 = private unnamed_addr constant [54 x i8] c"step:%d frame_rate:%d/%d(%f) -> frame_rate:%d/%d(%f)\0A\00", align 1
@framestep_class = internal constant { ptr, ptr, ptr, i32, i32, i32, i32, ptr, ptr, ptr, ptr, i32, [4 x i8] } { ptr @.str, ptr @av_default_item_name, ptr @framestep_options, i32 3932772, i32 0, i32 0, i32 7, ptr null, ptr null, ptr null, ptr null, i32 0, [4 x i8] zeroinitializer }, align 8
@.str.5 = private unnamed_addr constant [5 x i8] c"step\00", align 1
@.str.6 = private unnamed_addr constant [15 x i8] c"set frame step\00", align 1
@framestep_options = internal constant [2 x { ptr, ptr, i32, i32, %union.anon.2, double, double, i32, [4 x i8], ptr }] [{ ptr, ptr, i32, i32, %union.anon.2, double, double, i32, [4 x i8], ptr } { ptr @.str.5, ptr @.str.6, i32 8, i32 2, %union.anon.2 { i64 1 }, double 1.000000e+00, double 0x41DFFFFFFFC00000, i32 65552, [4 x i8] zeroinitializer, ptr null }, { ptr, ptr, i32, i32, %union.anon.2, double, double, i32, [4 x i8], ptr } zeroinitializer], align 16

; Function Attrs: nounwind uwtable
define internal i32 @filter_frame(ptr noundef readonly captures(none) %0, ptr noundef %1) #0 {
  %3 = alloca ptr, align 8
  store ptr %1, ptr %3, align 8, !tbaa !4
  %4 = getelementptr inbounds nuw i8, ptr %0, i64 16
  %5 = load ptr, ptr %4, align 8, !tbaa !9
  %6 = getelementptr inbounds nuw i8, ptr %5, i64 72
  %7 = load ptr, ptr %6, align 8, !tbaa !21
  %8 = getelementptr inbounds nuw i8, ptr %0, i64 240
  %9 = load i64, ptr %8, align 8, !tbaa !31
  %10 = getelementptr inbounds nuw i8, ptr %7, i64 8
  %11 = load i32, ptr %10, align 8, !tbaa !34
  %12 = sext i32 %11 to i64
  %13 = srem i64 %9, %12
  %.not = icmp eq i64 %13, 0
  br i1 %.not, label %14, label %19

14:                                               ; preds = %2
  %15 = getelementptr inbounds nuw i8, ptr %5, i64 56
  %16 = load ptr, ptr %15, align 8, !tbaa !36
  %17 = load ptr, ptr %16, align 8, !tbaa !37
  %18 = tail call i32 @ff_filter_frame(ptr noundef %17, ptr noundef %1) #3
  br label %20

19:                                               ; preds = %2
  call void @av_frame_free(ptr noundef nonnull %3) #3
  br label %20

20:                                               ; preds = %19, %14
  %.0 = phi i32 [ 0, %19 ], [ %18, %14 ]
  ret i32 %.0
}

declare i32 @ff_filter_frame(ptr noundef, ptr noundef) local_unnamed_addr #1

declare void @av_frame_free(ptr noundef) local_unnamed_addr #1

; Function Attrs: nounwind uwtable
define internal noundef i32 @config_output_props(ptr noundef captures(none) initializes((264, 272)) %0) #0 {
  %2 = load ptr, ptr %0, align 8, !tbaa !39
  %3 = getelementptr inbounds nuw i8, ptr %2, i64 72
  %4 = load ptr, ptr %3, align 8, !tbaa !21
  %5 = getelementptr inbounds nuw i8, ptr %2, i64 32
  %6 = load ptr, ptr %5, align 8, !tbaa !40
  %7 = load ptr, ptr %6, align 8, !tbaa !37
  %8 = getelementptr inbounds nuw i8, ptr %0, i64 264
  %9 = getelementptr inbounds nuw i8, ptr %7, i64 264
  %10 = getelementptr inbounds nuw i8, ptr %4, i64 8
  %11 = load i32, ptr %10, align 8, !tbaa !34
  %12 = load i64, ptr %9, align 8
  %.sroa.0.0.insert.ext = zext i32 %11 to i64
  %.sroa.0.0.insert.insert = or disjoint i64 %.sroa.0.0.insert.ext, 4294967296
  %13 = tail call i64 @av_div_q(i64 %12, i64 %.sroa.0.0.insert.insert) #4
  store i64 %13, ptr %8, align 8
  %14 = load i32, ptr %10, align 8, !tbaa !34
  %15 = load i32, ptr %9, align 8, !tbaa !41
  %16 = getelementptr inbounds nuw i8, ptr %7, i64 268
  %17 = load i32, ptr %16, align 4, !tbaa !42
  %18 = load i64, ptr %9, align 8
  %.sroa.0.0.extract.trunc.i = trunc i64 %18 to i32
  %.sroa.2.0.extract.shift.i = lshr i64 %18, 32
  %.sroa.2.0.extract.trunc.i = trunc nuw i64 %.sroa.2.0.extract.shift.i to i32
  %19 = sitofp i32 %.sroa.0.0.extract.trunc.i to double
  %20 = sitofp i32 %.sroa.2.0.extract.trunc.i to double
  %21 = fdiv nsz double %19, %20
  %22 = trunc i64 %13 to i32
  %23 = lshr i64 %13, 32
  %24 = trunc nuw i64 %23 to i32
  %25 = sitofp i32 %22 to double
  %26 = sitofp i32 %24 to double
  %27 = fdiv nsz double %25, %26
  tail call void (ptr, i32, ptr, ...) @av_log(ptr noundef %2, i32 noundef 40, ptr noundef nonnull @.str.3, i32 noundef %14, i32 noundef %15, i32 noundef %17, double noundef %21, i32 noundef %22, i32 noundef %24, double noundef %27) #3
  ret i32 0
}

; Function Attrs: mustprogress nofree nosync nounwind willreturn memory(none)
declare i64 @av_div_q(i64, i64) local_unnamed_addr #2

declare void @av_log(ptr noundef, i32 noundef, ptr noundef, ...) local_unnamed_addr #1

declare ptr @av_default_item_name(ptr noundef) #1


!llvm.module.flags = !{!0, !1, !2, !3}

!0 = !{i32 1, !"wchar_size", i32 4}
!1 = !{i32 8, !"PIC Level", i32 2}
!2 = !{i32 7, !"uwtable", i32 2}
!3 = !{i32 1, !"override-stack-alignment", i32 16}
!4 = !{!5, !5, i64 0}
!5 = !{!"p1 _ZTS7AVFrame", !6, i64 0}
!6 = !{!"any pointer", !7, i64 0}
!7 = !{!"omnipotent char", !8, i64 0}
!8 = !{!"Simple C/C++ TBAA"}
!9 = !{!10, !11, i64 16}
!10 = !{!"AVFilterLink", !11, i64 0, !12, i64 8, !11, i64 16, !12, i64 24, !13, i64 32, !13, i64 36, !13, i64 40, !13, i64 44, !14, i64 48, !13, i64 56, !13, i64 60, !13, i64 64, !15, i64 72, !14, i64 96, !16, i64 104, !13, i64 112, !18, i64 120, !18, i64 160}
!11 = !{!"p1 _ZTS15AVFilterContext", !6, i64 0}
!12 = !{!"p1 _ZTS11AVFilterPad", !6, i64 0}
!13 = !{!"int", !7, i64 0}
!14 = !{!"AVRational", !13, i64 0, !13, i64 4}
!15 = !{!"AVChannelLayout", !13, i64 0, !13, i64 4, !7, i64 8, !6, i64 16}
!16 = !{!"p2 _ZTS15AVFrameSideData", !17, i64 0}
!17 = !{!"any p2 pointer", !6, i64 0}
!18 = !{!"AVFilterFormatsConfig", !19, i64 0, !19, i64 8, !20, i64 16, !19, i64 24, !19, i64 32}
!19 = !{!"p1 _ZTS15AVFilterFormats", !6, i64 0}
!20 = !{!"p1 _ZTS22AVFilterChannelLayouts", !6, i64 0}
!21 = !{!22, !6, i64 72}
!22 = !{!"AVFilterContext", !23, i64 0, !24, i64 8, !25, i64 16, !12, i64 24, !26, i64 32, !13, i64 40, !12, i64 48, !26, i64 56, !13, i64 64, !6, i64 72, !27, i64 80, !13, i64 88, !13, i64 92, !28, i64 96, !25, i64 104, !6, i64 112, !29, i64 120, !13, i64 128, !30, i64 136, !13, i64 144, !13, i64 148}
!23 = !{!"p1 _ZTS7AVClass", !6, i64 0}
!24 = !{!"p1 _ZTS8AVFilter", !6, i64 0}
!25 = !{!"p1 omnipotent char", !6, i64 0}
!26 = !{!"p2 _ZTS12AVFilterLink", !17, i64 0}
!27 = !{!"p1 _ZTS13AVFilterGraph", !6, i64 0}
!28 = !{!"p1 _ZTS15AVFilterCommand", !6, i64 0}
!29 = !{!"p1 double", !6, i64 0}
!30 = !{!"p1 _ZTS11AVBufferRef", !6, i64 0}
!31 = !{!32, !33, i64 240}
!32 = !{!"FilterLink", !10, i64 0, !27, i64 200, !33, i64 208, !33, i64 216, !13, i64 224, !13, i64 228, !33, i64 232, !33, i64 240, !33, i64 248, !33, i64 256, !14, i64 264, !30, i64 272}
!33 = !{!"long", !7, i64 0}
!34 = !{!35, !13, i64 8}
!35 = !{!"NullContext", !23, i64 0, !13, i64 8}
!36 = !{!22, !26, i64 56}
!37 = !{!38, !38, i64 0}
!38 = !{!"p1 _ZTS12AVFilterLink", !6, i64 0}
!39 = !{!10, !11, i64 0}
!40 = !{!22, !26, i64 32}
!41 = !{!32, !13, i64 264}
!42 = !{!32, !13, i64 268}
